; Function Attrs: nounwind uwtable
define range(i32 -4, 1) i32 @deflateCopy(ptr noundef %0, ptr noundef readonly captures(address) %1) local_unnamed_addr #0 {
  %3 = icmp eq ptr %1, null
  br i1 %3, label %deflateStateCheck.exit.thread, label %4

4:                                                ; preds = %2
  %5 = getelementptr inbounds nuw i8, ptr %1, i64 64
  %6 = load ptr, ptr %5, align 8, !tbaa !13
  %7 = icmp eq ptr %6, null
  br i1 %7, label %deflateStateCheck.exit.thread, label %8

8:                                                ; preds = %4
  %9 = getelementptr inbounds nuw i8, ptr %1, i64 72
  %10 = load ptr, ptr %9, align 8, !tbaa !15
  %11 = icmp eq ptr %10, null
  br i1 %11, label %deflateStateCheck.exit.thread, label %12

12:                                               ; preds = %8
  %13 = getelementptr inbounds nuw i8, ptr %1, i64 56
  %14 = load ptr, ptr %13, align 8, !tbaa !16
  %15 = icmp eq ptr %14, null
  br i1 %15, label %deflateStateCheck.exit.thread, label %16

16:                                               ; preds = %12
  %17 = load ptr, ptr %14, align 8, !tbaa !17
  %.not.i = icmp eq ptr %17, %1
  br i1 %.not.i, label %18, label %deflateStateCheck.exit.thread

18:                                               ; preds = %16
  %19 = getelementptr inbounds nuw i8, ptr %14, i64 8
  %20 = load i32, ptr %19, align 8, !tbaa !26
  switch i32 %20, label %deflateStateCheck.exit.thread [
    i32 42, label %deflateStateCheck.exit
    i32 57, label %deflateStateCheck.exit
    i32 69, label %deflateStateCheck.exit
    i32 73, label %deflateStateCheck.exit
    i32 91, label %deflateStateCheck.exit
    i32 103, label %deflateStateCheck.exit
    i32 113, label %deflateStateCheck.exit
    i32 666, label %deflateStateCheck.exit
  ]

deflateStateCheck.exit:                           ; preds = %18, %18, %18, %18, %18, %18, %18, %18
  %21 = icmp eq ptr %0, null
  br i1 %21, label %deflateStateCheck.exit.thread, label %22

22:                                               ; preds = %deflateStateCheck.exit
  tail call void @llvm.memcpy.p0.p0.i64(ptr noundef nonnull align 1 dereferenceable(112) %0, ptr noundef nonnull align 1 dereferenceable(112) %1, i64 112, i1 false)
  %23 = getelementptr inbounds nuw i8, ptr %0, i64 64
  %24 = load ptr, ptr %23, align 8, !tbaa !13
  %25 = getelementptr inbounds nuw i8, ptr %0, i64 80
  %26 = load ptr, ptr %25, align 8, !tbaa !14
  %27 = tail call ptr %24(ptr noundef %26, i32 noundef 1, i32 noundef 5960) #10
  %28 = icmp eq ptr %27, null
  br i1 %28, label %deflateStateCheck.exit.thread, label %29

29:                                               ; preds = %22
  %30 = getelementptr inbounds nuw i8, ptr %0, i64 56
  store ptr %27, ptr %30, align 8, !tbaa !16
  tail call void @llvm.memcpy.p0.p0.i64(ptr noundef nonnull align 1 dereferenceable(5960) %27, ptr noundef nonnull align 1 dereferenceable(5960) %14, i64 5960, i1 false)
  store ptr %0, ptr %27, align 8, !tbaa !17
  %31 = load ptr, ptr %23, align 8, !tbaa !13
  %32 = load ptr, ptr %25, align 8, !tbaa !14
  %33 = getelementptr inbounds nuw i8, ptr %27, i64 80
  %34 = load i32, ptr %33, align 8, !tbaa !30
  %35 = tail call ptr %31(ptr noundef %32, i32 noundef %34, i32 noundef 2) #10
  %36 = getelementptr inbounds nuw i8, ptr %27, i64 96
  store ptr %35, ptr %36, align 8, !tbaa !36
  %37 = load ptr, ptr %23, align 8, !tbaa !13
  %38 = load ptr, ptr %25, align 8, !tbaa !14
  %39 = load i32, ptr %33, align 8, !tbaa !30
  %40 = tail call ptr %37(ptr noundef %38, i32 noundef %39, i32 noundef 2) #10
  %41 = getelementptr inbounds nuw i8, ptr %27, i64 112
  store ptr %40, ptr %41, align 8, !tbaa !37
  %42 = load ptr, ptr %23, align 8, !tbaa !13
  %43 = load ptr, ptr %25, align 8, !tbaa !14
  %44 = getelementptr inbounds nuw i8, ptr %27, i64 132
  %45 = load i32, ptr %44, align 4, !tbaa !33
  %46 = tail call ptr %42(ptr noundef %43, i32 noundef %45, i32 noundef 2) #10
  %47 = getelementptr inbounds nuw i8, ptr %27, i64 120
  store ptr %46, ptr %47, align 8, !tbaa !38
  %48 = load ptr, ptr %23, align 8, !tbaa !13
  %49 = load ptr, ptr %25, align 8, !tbaa !14
  %50 = getelementptr inbounds nuw i8, ptr %27, i64 5896
  %51 = load i32, ptr %50, align 8, !tbaa !40
  %52 = tail call ptr %48(ptr noundef %49, i32 noundef %51, i32 noundef 4) #10
  %53 = getelementptr inbounds nuw i8, ptr %27, i64 16
  store ptr %52, ptr %53, align 8, !tbaa !41
  %54 = load ptr, ptr %36, align 8, !tbaa !36
  %55 = icmp eq ptr %54, null
  br i1 %55, label %63, label %56

56:                                               ; preds = %29
  %57 = load ptr, ptr %41, align 8, !tbaa !37
  %58 = icmp eq ptr %57, null
  br i1 %58, label %63, label %59

59:                                               ; preds = %56
  %60 = load ptr, ptr %47, align 8, !tbaa !38
  %61 = icmp eq ptr %60, null
  %62 = icmp eq ptr %52, null
  %or.cond64 = select i1 %61, i1 true, i1 %62
  br i1 %or.cond64, label %63, label %65

63:                                               ; preds = %59, %56, %29
  %64 = tail call i32 @deflateEnd(ptr noundef nonnull %0)
  br label %deflateStateCheck.exit.thread

65:                                               ; preds = %59
  %66 = getelementptr inbounds nuw i8, ptr %14, i64 96
  %67 = load ptr, ptr %66, align 8, !tbaa !36
  %68 = load i32, ptr %33, align 8, !tbaa !30
  %69 = shl i32 %68, 1
  %70 = zext i32 %69 to i64
  tail call void @llvm.memcpy.p0.p0.i64(ptr nonnull align 1 %54, ptr align 1 %67, i64 %70, i1 false)
  %71 = load ptr, ptr %41, align 8, !tbaa !37
  %72 = getelementptr inbounds nuw i8, ptr %14, i64 112
  %73 = load ptr, ptr %72, align 8, !tbaa !37
  %74 = load i32, ptr %33, align 8, !tbaa !30
  %75 = zext i32 %74 to i64
  %76 = shl nuw nsw i64 %75, 1
  tail call void @llvm.memcpy.p0.p0.i64(ptr align 1 %71, ptr align 1 %73, i64 %76, i1 false)
  %77 = load ptr, ptr %47, align 8, !tbaa !38
  %78 = getelementptr inbounds nuw i8, ptr %14, i64 120
  %79 = load ptr, ptr %78, align 8, !tbaa !38
  %80 = load i32, ptr %44, align 4, !tbaa !33
  %81 = zext i32 %80 to i64
  %82 = shl nuw nsw i64 %81, 1
  tail call void @llvm.memcpy.p0.p0.i64(ptr align 1 %77, ptr align 1 %79, i64 %82, i1 false)
  %83 = load ptr, ptr %53, align 8, !tbaa !41
  %84 = getelementptr inbounds nuw i8, ptr %14, i64 16
  %85 = load ptr, ptr %84, align 8, !tbaa !41
  %86 = load i32, ptr %50, align 8, !tbaa !40
  %87 = shl i32 %86, 2
  %88 = zext i32 %87 to i64
  tail call void @llvm.memcpy.p0.p0.i64(ptr align 1 %83, ptr align 1 %85, i64 %88, i1 false)
  %89 = load ptr, ptr %53, align 8, !tbaa !41
  %90 = getelementptr inbounds nuw i8, ptr %14, i64 32
  %91 = load ptr, ptr %90, align 8, !tbaa !83
  %92 = load ptr, ptr %84, align 8, !tbaa !41
  %93 = ptrtoint ptr %91 to i64
  %94 = ptrtoint ptr %92 to i64
  %95 = sub i64 %93, %94
  %96 = getelementptr inbounds i8, ptr %89, i64 %95
  %97 = getelementptr inbounds nuw i8, ptr %27, i64 32
  store ptr %96, ptr %97, align 8, !tbaa !83
  %98 = load i32, ptr %50, align 8, !tbaa !40
  %99 = zext i32 %98 to i64
  %100 = getelementptr inbounds nuw i8, ptr %89, i64 %99
  %101 = getelementptr inbounds nuw i8, ptr %27, i64 5888
  store ptr %100, ptr %101, align 8, !tbaa !44
  %102 = getelementptr inbounds nuw i8, ptr %27, i64 212
  %103 = getelementptr inbounds nuw i8, ptr %27, i64 2904
  store ptr %102, ptr %103, align 8, !tbaa !112
  %104 = getelementptr inbounds nuw i8, ptr %27, i64 2504
  %105 = getelementptr inbounds nuw i8, ptr %27, i64 2928
  store ptr %104, ptr %105, align 8, !tbaa !113
  %106 = getelementptr inbounds nuw i8, ptr %27, i64 2748
  %107 = getelementptr inbounds nuw i8, ptr %27, i64 2952
  store ptr %106, ptr %107, align 8, !tbaa !114
  br label %deflateStateCheck.exit.thread

deflateStateCheck.exit.thread:                    ; preds = %12, %16, %18, %2, %4, %8, %22, %deflateStateCheck.exit, %65, %63
  %.0 = phi i32 [ -4, %63 ], [ 0, %65 ], [ -2, %deflateStateCheck.exit ], [ -4, %22 ], [ -2, %8 ], [ -2, %4 ], [ -2, %2 ], [ -2, %18 ], [ -2, %16 ], [ -2, %12 ]
  ret i32 %.0
}